(dp0
S'1dafs'
p1
(lp2
F1.0
aF1.0
aF1.0
aF1.0
asS'Oanda'
p3
(lp4
I100
aI50
aI1
aI0
asS'Nikhil'
p5
(lp6
F1.0
aF100.0
aF0.0
aF0.0
asS'TDAmeritrade'
p7
(lp8
I5
aI0
aI100
aI3
aI0
asS'Ally'
p9
(lp10
F7739.023831766099
aF1000.0
aF0.05
aF0.0
as.